; ModuleID = '34/3316.c'
source_filename = "34/3316.c"
target datalayout = "e-m:e-p270:32:32-p271:32:32-p272:64:64-i64:64-f80:128-n8:16:32:64-S128"
target triple = "x86_64-pc-linux-gnu"

@.str = private unnamed_addr constant [11 x i8] c"%d*3+1=%d\0A\00", align 1
@.str.1 = private unnamed_addr constant [9 x i8] c"%d/2=%d\0A\00", align 1
@.str.2 = private unnamed_addr constant [4 x i8] c"End\00", align 1
@.str.3 = private unnamed_addr constant [3 x i8] c"%d\00", align 1

; Function Attrs: noinline nounwind uwtable
define dso_local i32 @one(i32 %0) #0 {
  %2 = alloca i32, align 4
  store i32 %0, i32* %2, align 4
  %3 = load i32, i32* %2, align 4
  %4 = icmp ne i32 %3, 1
  br i1 %4, label %5, label %26

5:                                                ; preds = %1
  %6 = load i32, i32* %2, align 4
  %7 = srem i32 %6, 2
  %8 = icmp ne i32 %7, 0
  br i1 %8, label %9, label %18

9:                                                ; preds = %5
  %10 = load i32, i32* %2, align 4
  %11 = load i32, i32* %2, align 4
  %12 = mul nsw i32 %11, 3
  %13 = add nsw i32 %12, 1
  %14 = call i32 (i8*, ...) @printf(i8* getelementptr inbounds ([11 x i8], [11 x i8]* @.str, i64 0, i64 0), i32 %10, i32 %13)
  %15 = load i32, i32* %2, align 4
  %16 = mul nsw i32 %15, 3
  %17 = add nsw i32 %16, 1
  store i32 %17, i32* %2, align 4
  br label %25

18:                                               ; preds = %5
  %19 = load i32, i32* %2, align 4
  %20 = load i32, i32* %2, align 4
  %21 = sdiv i32 %20, 2
  %22 = call i32 (i8*, ...) @printf(i8* getelementptr inbounds ([9 x i8], [9 x i8]* @.str.1, i64 0, i64 0), i32 %19, i32 %21)
  %23 = load i32, i32* %2, align 4
  %24 = sdiv i32 %23, 2
  store i32 %24, i32* %2, align 4
  br label %25

25:                                               ; preds = %18, %9
  br label %28

26:                                               ; preds = %1
  store i32 -1, i32* %2, align 4
  %27 = call i32 (i8*, ...) @printf(i8* getelementptr inbounds ([4 x i8], [4 x i8]* @.str.2, i64 0, i64 0))
  br label %28

28:                                               ; preds = %26, %25
  %29 = load i32, i32* %2, align 4
  ret i32 %29
}

declare dso_local i32 @printf(i8*, ...) #1

; Function Attrs: noinline nounwind uwtable
define dso_local i32 @main() #0 {
  %1 = alloca i32, align 4
  %2 = alloca i32, align 4
  store i32 0, i32* %1, align 4
  %3 = call i32 (i8*, ...) @__isoc99_scanf(i8* getelementptr inbounds ([3 x i8], [3 x i8]* @.str.3, i64 0, i64 0), i32* %2)
  br label %4

4:                                                ; preds = %7, %0
  %5 = load i32, i32* %2, align 4
  %6 = call i32 @one(i32 %5)
  store i32 %6, i32* %2, align 4
  br label %7

7:                                                ; preds = %4
  %8 = load i32, i32* %2, align 4
  %9 = icmp ne i32 %8, -1
  br i1 %9, label %4, label %10

10:                                               ; preds = %7
  ret i32 0
}

declare dso_local i32 @__isoc99_scanf(i8*, ...) #1


!llvm.module.flags = !{!0}
!llvm.ident = !{!1}

!0 = !{i32 1, !"wchar_size", i32 4}
!1 = !{!"clang version 10.0.0-4ubuntu1 "}
